(lp0
S'poi'
p1
aS'exercised_stock_options'
p2
aS'from_this_person_to_poi_ratio'
p3
aS'salary'
p4
aS'bonus'
p5
aS'total_stock_value'
p6
aS'restricted_stock'
p7
aS'other'
p8
aS'shared_receipt_with_poi'
p9
a.